target datalayout = "e-m:e-p270:32:32-p271:32:32-p272:64:64-i64:64-i128:128-f80:128-n8:16:32:64-S128"
target triple = "x86_64-pc-linux-gnu"

@.str = private unnamed_addr constant [118 x i8] c"generated/home/dtcxzyw/WorkSpace/Projects/compilers/llvm-opt-benchmark/bench/sundials/sundials/src/kinsol/kinsol_ls.c\00", align 1
@.str.1 = private unnamed_addr constant [23 x i8] c"KINSOL memory is NULL.\00", align 1
@__func__.kinLsDQJac = private unnamed_addr constant [11 x i8] c"kinLsDQJac\00", align 1
@.str.26 = private unnamed_addr constant [30 x i8] c"Linear solver memory is NULL.\00", align 1
@.str.27 = private unnamed_addr constant [40 x i8] c"unrecognized matrix type for kinLsDQJac\00", align 1

; Function Attrs: nounwind uwtable
define i32 @kinLsDQJac(ptr noundef %0, ptr noundef %1, ptr noundef %2, ptr noundef %3, ptr noundef %4, ptr noundef %5) #0 {
  %7 = alloca i32, align 4
  %8 = alloca ptr, align 8
  %9 = alloca ptr, align 8
  %10 = alloca ptr, align 8
  %11 = alloca ptr, align 8
  %12 = alloca ptr, align 8
  %13 = alloca ptr, align 8
  %14 = alloca ptr, align 8
  %15 = alloca i32, align 4
  %16 = alloca i32, align 4
  store ptr %0, ptr %8, align 8, !tbaa !85
  store ptr %1, ptr %9, align 8, !tbaa !85
  store ptr %2, ptr %10, align 8, !tbaa !9
  store ptr %3, ptr %11, align 8, !tbaa !3
  store ptr %4, ptr %12, align 8, !tbaa !85
  store ptr %5, ptr %13, align 8, !tbaa !85
  call void @llvm.lifetime.start.p0(i64 8, ptr %14) #7
  call void @llvm.lifetime.start.p0(i64 4, ptr %15) #7
  %17 = load ptr, ptr %11, align 8, !tbaa !3
  %18 = icmp eq ptr %17, null
  br i1 %18, label %19, label %20

19:                                               ; preds = %6
  call void (ptr, i32, i32, ptr, ptr, ptr, ...) @KINProcessError(ptr noundef null, i32 noundef -1, i32 noundef 721, ptr noundef @__func__.kinLsDQJac, ptr noundef @.str, ptr noundef @.str.1)
  store i32 -1, ptr %7, align 4
  store i32 1, ptr %16, align 4
  br label %55

20:                                               ; preds = %6
  %21 = load ptr, ptr %11, align 8, !tbaa !3
  store ptr %21, ptr %14, align 8, !tbaa !11
  %22 = load ptr, ptr %10, align 8, !tbaa !9
  %23 = icmp eq ptr %22, null
  br i1 %23, label %24, label %26

24:                                               ; preds = %20
  %25 = load ptr, ptr %14, align 8, !tbaa !11
  call void (ptr, i32, i32, ptr, ptr, ptr, ...) @KINProcessError(ptr noundef %25, i32 noundef -2, i32 noundef 730, ptr noundef @__func__.kinLsDQJac, ptr noundef @.str, ptr noundef @.str.26)
  store i32 -2, ptr %7, align 4
  store i32 1, ptr %16, align 4
  br label %55

26:                                               ; preds = %20
  %27 = load ptr, ptr %10, align 8, !tbaa !9
  %28 = call i32 @SUNMatGetID(ptr noundef %27)
  %29 = icmp eq i32 %28, 0
  br i1 %29, label %30, label %38

30:                                               ; preds = %26
  %31 = load ptr, ptr %8, align 8, !tbaa !85
  %32 = load ptr, ptr %9, align 8, !tbaa !85
  %33 = load ptr, ptr %10, align 8, !tbaa !9
  %34 = load ptr, ptr %14, align 8, !tbaa !11
  %35 = load ptr, ptr %12, align 8, !tbaa !85
  %36 = load ptr, ptr %13, align 8, !tbaa !85
  %37 = call i32 @kinLsDenseDQJac(ptr noundef %31, ptr noundef %32, ptr noundef %33, ptr noundef %34, ptr noundef %35, ptr noundef %36)
  store i32 %37, ptr %15, align 4, !tbaa !20
  br label %53

38:                                               ; preds = %26
  %39 = load ptr, ptr %10, align 8, !tbaa !9
  %40 = call i32 @SUNMatGetID(ptr noundef %39)
  %41 = icmp eq i32 %40, 3
  br i1 %41, label %42, label %50

42:                                               ; preds = %38
  %43 = load ptr, ptr %8, align 8, !tbaa !85
  %44 = load ptr, ptr %9, align 8, !tbaa !85
  %45 = load ptr, ptr %10, align 8, !tbaa !9
  %46 = load ptr, ptr %14, align 8, !tbaa !11
  %47 = load ptr, ptr %12, align 8, !tbaa !85
  %48 = load ptr, ptr %13, align 8, !tbaa !85
  %49 = call i32 @kinLsBandDQJac(ptr noundef %43, ptr noundef %44, ptr noundef %45, ptr noundef %46, ptr noundef %47, ptr noundef %48)
  store i32 %49, ptr %15, align 4, !tbaa !20
  br label %52

50:                                               ; preds = %38
  %51 = load ptr, ptr %14, align 8, !tbaa !11
  call void (ptr, i32, i32, ptr, ptr, ptr, ...) @KINProcessError(ptr noundef %51, i32 noundef -2, i32 noundef 746, ptr noundef @__func__.kinLsDQJac, ptr noundef @.str, ptr noundef @.str.27)
  store i32 -2, ptr %15, align 4, !tbaa !20
  br label %52

52:                                               ; preds = %50, %42
  br label %53

53:                                               ; preds = %52, %30
  %54 = load i32, ptr %15, align 4, !tbaa !20
  store i32 %54, ptr %7, align 4
  store i32 1, ptr %16, align 4
  br label %55

55:                                               ; preds = %53, %24, %19
  call void @llvm.lifetime.end.p0(i64 4, ptr %15) #7
  call void @llvm.lifetime.end.p0(i64 8, ptr %14) #7
  %56 = load i32, ptr %7, align 4
  ret i32 %56
}