; Function Attrs: nounwind uwtable
define i32 @kinLsDQJac(ptr noundef %0, ptr noundef %1, ptr noundef %2, ptr noundef %3, ptr noundef %4, ptr noundef %5) #0 {
  %7 = icmp eq ptr %3, null
  br i1 %7, label %8, label %9

8:                                                ; preds = %6
  tail call void (ptr, i32, i32, ptr, ptr, ptr, ...) @KINProcessError(ptr noundef null, i32 noundef -1, i32 noundef 721, ptr noundef nonnull @__func__.kinLsDQJac, ptr noundef nonnull @.str, ptr noundef nonnull @.str.1) #13
  br label %23

9:                                                ; preds = %6
  %10 = icmp eq ptr %2, null
  br i1 %10, label %11, label %12

11:                                               ; preds = %9
  tail call void (ptr, i32, i32, ptr, ptr, ptr, ...) @KINProcessError(ptr noundef nonnull %3, i32 noundef -2, i32 noundef 730, ptr noundef nonnull @__func__.kinLsDQJac, ptr noundef nonnull @.str, ptr noundef nonnull @.str.26) #13
  br label %23

12:                                               ; preds = %9
  %13 = tail call i32 @SUNMatGetID(ptr noundef nonnull %2) #13
  %14 = icmp eq i32 %13, 0
  br i1 %14, label %15, label %17

15:                                               ; preds = %12
  %16 = tail call i32 @kinLsDenseDQJac(ptr noundef %0, ptr noundef %1, ptr noundef nonnull %2, ptr noundef nonnull %3, ptr noundef %4, ptr noundef %5)
  br label %23

17:                                               ; preds = %12
  %18 = tail call i32 @SUNMatGetID(ptr noundef nonnull %2) #13
  %19 = icmp eq i32 %18, 3
  br i1 %19, label %20, label %22

20:                                               ; preds = %17
  %21 = tail call i32 @kinLsBandDQJac(ptr noundef %0, ptr noundef %1, ptr noundef nonnull %2, ptr noundef nonnull %3, ptr noundef %4, ptr noundef %5)
  br label %23

22:                                               ; preds = %17
  tail call void (ptr, i32, i32, ptr, ptr, ptr, ...) @KINProcessError(ptr noundef nonnull %3, i32 noundef -2, i32 noundef 746, ptr noundef nonnull @__func__.kinLsDQJac, ptr noundef nonnull @.str, ptr noundef nonnull @.str.27) #13
  br label %23

23:                                               ; preds = %15, %22, %20, %11, %8
  %.020 = phi i32 [ -1, %8 ], [ -2, %11 ], [ %16, %15 ], [ %21, %20 ], [ -2, %22 ]
  ret i32 %.020
}